
labb1_d0003e.elf:     file format elf32-avr

Sections:
Idx Name          Size      VMA       LMA       File off  Algn
  0 .data         00000014  00800100  000009ae  00000a22  2**0
                  CONTENTS, ALLOC, LOAD, DATA
  1 .text         000009ae  00000000  00000000  00000074  2**1
                  CONTENTS, ALLOC, LOAD, READONLY, CODE
  2 .comment      00000030  00000000  00000000  00000a36  2**0
                  CONTENTS, READONLY
  3 .note.gnu.avr.deviceinfo 00000040  00000000  00000000  00000a68  2**2
                  CONTENTS, READONLY
  4 .debug_aranges 00000050  00000000  00000000  00000aa8  2**0
                  CONTENTS, READONLY, DEBUGGING
  5 .debug_info   000009e8  00000000  00000000  00000af8  2**0
                  CONTENTS, READONLY, DEBUGGING
  6 .debug_abbrev 000008aa  00000000  00000000  000014e0  2**0
                  CONTENTS, READONLY, DEBUGGING
  7 .debug_line   0000040b  00000000  00000000  00001d8a  2**0
                  CONTENTS, READONLY, DEBUGGING
  8 .debug_frame  000000c0  00000000  00000000  00002198  2**2
                  CONTENTS, READONLY, DEBUGGING
  9 .debug_str    00000452  00000000  00000000  00002258  2**0
                  CONTENTS, READONLY, DEBUGGING
 10 .debug_loc    0000024f  00000000  00000000  000026aa  2**0
                  CONTENTS, READONLY, DEBUGGING
 11 .debug_ranges 00000058  00000000  00000000  000028f9  2**0
                  CONTENTS, READONLY, DEBUGGING

Disassembly of section .text:

00000000 <__vectors>:
   0:	0c 94 2e 00 	jmp	0x5c	; 0x5c <__ctors_end>
   4:	0c 94 43 00 	jmp	0x86	; 0x86 <__bad_interrupt>
   8:	0c 94 43 00 	jmp	0x86	; 0x86 <__bad_interrupt>
   c:	0c 94 43 00 	jmp	0x86	; 0x86 <__bad_interrupt>
  10:	0c 94 43 00 	jmp	0x86	; 0x86 <__bad_interrupt>
  14:	0c 94 43 00 	jmp	0x86	; 0x86 <__bad_interrupt>
  18:	0c 94 43 00 	jmp	0x86	; 0x86 <__bad_interrupt>
  1c:	0c 94 43 00 	jmp	0x86	; 0x86 <__bad_interrupt>
  20:	0c 94 43 00 	jmp	0x86	; 0x86 <__bad_interrupt>
  24:	0c 94 43 00 	jmp	0x86	; 0x86 <__bad_interrupt>
  28:	0c 94 43 00 	jmp	0x86	; 0x86 <__bad_interrupt>
  2c:	0c 94 43 00 	jmp	0x86	; 0x86 <__bad_interrupt>
  30:	0c 94 43 00 	jmp	0x86	; 0x86 <__bad_interrupt>
  34:	0c 94 43 00 	jmp	0x86	; 0x86 <__bad_interrupt>
  38:	0c 94 43 00 	jmp	0x86	; 0x86 <__bad_interrupt>
  3c:	0c 94 43 00 	jmp	0x86	; 0x86 <__bad_interrupt>
  40:	0c 94 43 00 	jmp	0x86	; 0x86 <__bad_interrupt>
  44:	0c 94 43 00 	jmp	0x86	; 0x86 <__bad_interrupt>
  48:	0c 94 43 00 	jmp	0x86	; 0x86 <__bad_interrupt>
  4c:	0c 94 43 00 	jmp	0x86	; 0x86 <__bad_interrupt>
  50:	0c 94 43 00 	jmp	0x86	; 0x86 <__bad_interrupt>
  54:	0c 94 43 00 	jmp	0x86	; 0x86 <__bad_interrupt>
  58:	0c 94 43 00 	jmp	0x86	; 0x86 <__bad_interrupt>

0000005c <__ctors_end>:
  5c:	11 24       	eor	r1, r1
  5e:	1f be       	out	0x3f, r1	; 63
  60:	cf ef       	ldi	r28, 0xFF	; 255
  62:	d4 e0       	ldi	r29, 0x04	; 4
  64:	de bf       	out	0x3e, r29	; 62
  66:	cd bf       	out	0x3d, r28	; 61

00000068 <__do_copy_data>:
  68:	11 e0       	ldi	r17, 0x01	; 1
  6a:	a0 e0       	ldi	r26, 0x00	; 0
  6c:	b1 e0       	ldi	r27, 0x01	; 1
  6e:	ee ea       	ldi	r30, 0xAE	; 174
  70:	f9 e0       	ldi	r31, 0x09	; 9
  72:	02 c0       	rjmp	.+4      	; 0x78 <__do_copy_data+0x10>
  74:	05 90       	lpm	r0, Z+
  76:	0d 92       	st	X+, r0
  78:	a4 31       	cpi	r26, 0x14	; 20
  7a:	b1 07       	cpc	r27, r17
  7c:	d9 f7       	brne	.-10     	; 0x74 <__do_copy_data+0xc>
  7e:	0e 94 3f 03 	call	0x67e	; 0x67e <main>
  82:	0c 94 d5 04 	jmp	0x9aa	; 0x9aa <_exit>

00000086 <__bad_interrupt>:
  86:	0c 94 00 00 	jmp	0	; 0x0 <__vectors>

0000008a <LCD_Init>:
	

}


void writeLong(long i) {
  8a:	e1 e6       	ldi	r30, 0x61	; 97
  8c:	f0 e0       	ldi	r31, 0x00	; 0
  8e:	80 e8       	ldi	r24, 0x80	; 128
  90:	80 83       	st	Z, r24
  92:	10 82       	st	Z, r1
  94:	87 eb       	ldi	r24, 0xB7	; 183
  96:	80 93 e5 00 	sts	0x00E5, r24	; 0x8000e5 <__TEXT_REGION_LENGTH__+0x7fc0e5>
  9a:	87 e0       	ldi	r24, 0x07	; 7
  9c:	80 93 e6 00 	sts	0x00E6, r24	; 0x8000e6 <__TEXT_REGION_LENGTH__+0x7fc0e6>
  a0:	8f e0       	ldi	r24, 0x0F	; 15
  a2:	80 93 e7 00 	sts	0x00E7, r24	; 0x8000e7 <__TEXT_REGION_LENGTH__+0x7fc0e7>
  a6:	80 ec       	ldi	r24, 0xC0	; 192
  a8:	80 93 e4 00 	sts	0x00E4, r24	; 0x8000e4 <__TEXT_REGION_LENGTH__+0x7fc0e4>
  ac:	08 95       	ret

000000ae <writeChar>:
  ae:	cf 93       	push	r28
  b0:	df 93       	push	r29
  b2:	cd b7       	in	r28, 0x3d	; 61
  b4:	de b7       	in	r29, 0x3e	; 62
  b6:	c0 5e       	subi	r28, 0xE0	; 224
  b8:	d1 40       	sbci	r29, 0x01	; 1
  ba:	0f b6       	in	r0, 0x3f	; 63
  bc:	f8 94       	cli
  be:	de bf       	out	0x3e, r29	; 62
  c0:	0f be       	out	0x3f, r0	; 63
  c2:	cd bf       	out	0x3d, r28	; 61
  c4:	66 30       	cpi	r22, 0x06	; 6
  c6:	71 05       	cpc	r23, r1
  c8:	08 f0       	brcs	.+2      	; 0xcc <writeChar+0x1e>
  ca:	9a c2       	rjmp	.+1332   	; 0x600 <__stack+0x101>
  cc:	00 97       	sbiw	r24, 0x00	; 0
  ce:	d9 f0       	breq	.+54     	; 0x106 <writeChar+0x58>
  d0:	81 30       	cpi	r24, 0x01	; 1
  d2:	91 05       	cpc	r25, r1
  d4:	d9 f0       	breq	.+54     	; 0x10c <writeChar+0x5e>
  d6:	82 30       	cpi	r24, 0x02	; 2
  d8:	91 05       	cpc	r25, r1
  da:	d9 f0       	breq	.+54     	; 0x112 <writeChar+0x64>
  dc:	83 30       	cpi	r24, 0x03	; 3
  de:	91 05       	cpc	r25, r1
  e0:	d9 f0       	breq	.+54     	; 0x118 <writeChar+0x6a>
  e2:	84 30       	cpi	r24, 0x04	; 4
  e4:	91 05       	cpc	r25, r1
  e6:	d9 f0       	breq	.+54     	; 0x11e <writeChar+0x70>
  e8:	85 30       	cpi	r24, 0x05	; 5
  ea:	91 05       	cpc	r25, r1
  ec:	d9 f0       	breq	.+54     	; 0x124 <writeChar+0x76>
  ee:	86 30       	cpi	r24, 0x06	; 6
  f0:	91 05       	cpc	r25, r1
  f2:	d9 f0       	breq	.+54     	; 0x12a <writeChar+0x7c>
  f4:	87 30       	cpi	r24, 0x07	; 7
  f6:	91 05       	cpc	r25, r1
  f8:	d9 f0       	breq	.+54     	; 0x130 <writeChar+0x82>
  fa:	88 30       	cpi	r24, 0x08	; 8
  fc:	91 05       	cpc	r25, r1
  fe:	d9 f0       	breq	.+54     	; 0x136 <writeChar+0x88>
 100:	09 97       	sbiw	r24, 0x09	; 9
 102:	f1 f4       	brne	.+60     	; 0x140 <writeChar+0x92>
 104:	1b c0       	rjmp	.+54     	; 0x13c <writeChar+0x8e>
 106:	20 e0       	ldi	r18, 0x00	; 0
 108:	30 e0       	ldi	r19, 0x00	; 0
 10a:	1a c0       	rjmp	.+52     	; 0x140 <writeChar+0x92>
 10c:	21 e0       	ldi	r18, 0x01	; 1
 10e:	30 e0       	ldi	r19, 0x00	; 0
 110:	17 c0       	rjmp	.+46     	; 0x140 <writeChar+0x92>
 112:	22 e0       	ldi	r18, 0x02	; 2
 114:	30 e0       	ldi	r19, 0x00	; 0
 116:	14 c0       	rjmp	.+40     	; 0x140 <writeChar+0x92>
 118:	23 e0       	ldi	r18, 0x03	; 3
 11a:	30 e0       	ldi	r19, 0x00	; 0
 11c:	11 c0       	rjmp	.+34     	; 0x140 <writeChar+0x92>
 11e:	24 e0       	ldi	r18, 0x04	; 4
 120:	30 e0       	ldi	r19, 0x00	; 0
 122:	0e c0       	rjmp	.+28     	; 0x140 <writeChar+0x92>
 124:	25 e0       	ldi	r18, 0x05	; 5
 126:	30 e0       	ldi	r19, 0x00	; 0
 128:	0b c0       	rjmp	.+22     	; 0x140 <writeChar+0x92>
 12a:	26 e0       	ldi	r18, 0x06	; 6
 12c:	30 e0       	ldi	r19, 0x00	; 0
 12e:	08 c0       	rjmp	.+16     	; 0x140 <writeChar+0x92>
 130:	27 e0       	ldi	r18, 0x07	; 7
 132:	30 e0       	ldi	r19, 0x00	; 0
 134:	05 c0       	rjmp	.+10     	; 0x140 <writeChar+0x92>
 136:	28 e0       	ldi	r18, 0x08	; 8
 138:	30 e0       	ldi	r19, 0x00	; 0
 13a:	02 c0       	rjmp	.+4      	; 0x140 <writeChar+0x92>
 13c:	29 e0       	ldi	r18, 0x09	; 9
 13e:	30 e0       	ldi	r19, 0x00	; 0
 140:	61 15       	cp	r22, r1
 142:	71 05       	cpc	r23, r1
 144:	09 f0       	breq	.+2      	; 0x148 <writeChar+0x9a>
 146:	63 c0       	rjmp	.+198    	; 0x20e <__EEPROM_REGION_LENGTH__+0xe>
 148:	84 e1       	ldi	r24, 0x14	; 20
 14a:	e0 e0       	ldi	r30, 0x00	; 0
 14c:	f1 e0       	ldi	r31, 0x01	; 1
 14e:	de 01       	movw	r26, r28
 150:	a3 53       	subi	r26, 0x33	; 51
 152:	be 4f       	sbci	r27, 0xFE	; 254
 154:	01 90       	ld	r0, Z+
 156:	0d 92       	st	X+, r0
 158:	8a 95       	dec	r24
 15a:	e1 f7       	brne	.-8      	; 0x154 <writeChar+0xa6>
 15c:	c9 01       	movw	r24, r18
 15e:	88 0f       	add	r24, r24
 160:	99 1f       	adc	r25, r25
 162:	ed ec       	ldi	r30, 0xCD	; 205
 164:	f1 e0       	ldi	r31, 0x01	; 1
 166:	ec 0f       	add	r30, r28
 168:	fd 1f       	adc	r31, r29
 16a:	e8 0f       	add	r30, r24
 16c:	f9 1f       	adc	r31, r25
 16e:	20 81       	ld	r18, Z
 170:	2f 70       	andi	r18, 0x0F	; 15
 172:	20 93 ec 00 	sts	0x00EC, r18	; 0x8000ec <__TEXT_REGION_LENGTH__+0x7fc0ec>
 176:	24 e1       	ldi	r18, 0x14	; 20
 178:	e0 e0       	ldi	r30, 0x00	; 0
 17a:	f1 e0       	ldi	r31, 0x01	; 1
 17c:	de 01       	movw	r26, r28
 17e:	a7 54       	subi	r26, 0x47	; 71
 180:	be 4f       	sbci	r27, 0xFE	; 254
 182:	01 90       	ld	r0, Z+
 184:	0d 92       	st	X+, r0
 186:	2a 95       	dec	r18
 188:	e1 f7       	brne	.-8      	; 0x182 <writeChar+0xd4>
 18a:	e9 eb       	ldi	r30, 0xB9	; 185
 18c:	f1 e0       	ldi	r31, 0x01	; 1
 18e:	ec 0f       	add	r30, r28
 190:	fd 1f       	adc	r31, r29
 192:	e8 0f       	add	r30, r24
 194:	f9 1f       	adc	r31, r25
 196:	20 81       	ld	r18, Z
 198:	31 81       	ldd	r19, Z+1	; 0x01
 19a:	20 7f       	andi	r18, 0xF0	; 240
 19c:	33 27       	eor	r19, r19
 19e:	35 95       	asr	r19
 1a0:	27 95       	ror	r18
 1a2:	35 95       	asr	r19
 1a4:	27 95       	ror	r18
 1a6:	35 95       	asr	r19
 1a8:	27 95       	ror	r18
 1aa:	35 95       	asr	r19
 1ac:	27 95       	ror	r18
 1ae:	20 93 f1 00 	sts	0x00F1, r18	; 0x8000f1 <__TEXT_REGION_LENGTH__+0x7fc0f1>
 1b2:	24 e1       	ldi	r18, 0x14	; 20
 1b4:	e0 e0       	ldi	r30, 0x00	; 0
 1b6:	f1 e0       	ldi	r31, 0x01	; 1
 1b8:	de 01       	movw	r26, r28
 1ba:	ab 55       	subi	r26, 0x5B	; 91
 1bc:	be 4f       	sbci	r27, 0xFE	; 254
 1be:	01 90       	ld	r0, Z+
 1c0:	0d 92       	st	X+, r0
 1c2:	2a 95       	dec	r18
 1c4:	e1 f7       	brne	.-8      	; 0x1be <writeChar+0x110>
 1c6:	e5 ea       	ldi	r30, 0xA5	; 165
 1c8:	f1 e0       	ldi	r31, 0x01	; 1
 1ca:	ec 0f       	add	r30, r28
 1cc:	fd 1f       	adc	r31, r29
 1ce:	e8 0f       	add	r30, r24
 1d0:	f9 1f       	adc	r31, r25
 1d2:	20 81       	ld	r18, Z
 1d4:	31 81       	ldd	r19, Z+1	; 0x01
 1d6:	22 27       	eor	r18, r18
 1d8:	3f 70       	andi	r19, 0x0F	; 15
 1da:	30 93 f6 00 	sts	0x00F6, r19	; 0x8000f6 <__TEXT_REGION_LENGTH__+0x7fc0f6>
 1de:	24 e1       	ldi	r18, 0x14	; 20
 1e0:	e0 e0       	ldi	r30, 0x00	; 0
 1e2:	f1 e0       	ldi	r31, 0x01	; 1
 1e4:	de 01       	movw	r26, r28
 1e6:	af 56       	subi	r26, 0x6F	; 111
 1e8:	be 4f       	sbci	r27, 0xFE	; 254
 1ea:	01 90       	ld	r0, Z+
 1ec:	0d 92       	st	X+, r0
 1ee:	2a 95       	dec	r18
 1f0:	e1 f7       	brne	.-8      	; 0x1ea <writeChar+0x13c>
 1f2:	e1 e9       	ldi	r30, 0x91	; 145
 1f4:	f1 e0       	ldi	r31, 0x01	; 1
 1f6:	ec 0f       	add	r30, r28
 1f8:	fd 1f       	adc	r31, r29
 1fa:	e8 0f       	add	r30, r24
 1fc:	f9 1f       	adc	r31, r25
 1fe:	81 81       	ldd	r24, Z+1	; 0x01
 200:	85 95       	asr	r24
 202:	85 95       	asr	r24
 204:	85 95       	asr	r24
 206:	85 95       	asr	r24
 208:	80 93 fb 00 	sts	0x00FB, r24	; 0x8000fb <__TEXT_REGION_LENGTH__+0x7fc0fb>
 20c:	f9 c1       	rjmp	.+1010   	; 0x600 <__stack+0x101>
 20e:	61 30       	cpi	r22, 0x01	; 1
 210:	71 05       	cpc	r23, r1
 212:	09 f0       	breq	.+2      	; 0x216 <__EEPROM_REGION_LENGTH__+0x16>
 214:	66 c0       	rjmp	.+204    	; 0x2e2 <__EEPROM_REGION_LENGTH__+0xe2>
 216:	84 e1       	ldi	r24, 0x14	; 20
 218:	e0 e0       	ldi	r30, 0x00	; 0
 21a:	f1 e0       	ldi	r31, 0x01	; 1
 21c:	de 01       	movw	r26, r28
 21e:	a3 58       	subi	r26, 0x83	; 131
 220:	be 4f       	sbci	r27, 0xFE	; 254
 222:	01 90       	ld	r0, Z+
 224:	0d 92       	st	X+, r0
 226:	8a 95       	dec	r24
 228:	e1 f7       	brne	.-8      	; 0x222 <__EEPROM_REGION_LENGTH__+0x22>
 22a:	c9 01       	movw	r24, r18
 22c:	88 0f       	add	r24, r24
 22e:	99 1f       	adc	r25, r25
 230:	ed e7       	ldi	r30, 0x7D	; 125
 232:	f1 e0       	ldi	r31, 0x01	; 1
 234:	ec 0f       	add	r30, r28
 236:	fd 1f       	adc	r31, r29
 238:	e8 0f       	add	r30, r24
 23a:	f9 1f       	adc	r31, r25
 23c:	20 81       	ld	r18, Z
 23e:	31 81       	ldd	r19, Z+1	; 0x01
 240:	22 95       	swap	r18
 242:	32 95       	swap	r19
 244:	30 7f       	andi	r19, 0xF0	; 240
 246:	32 27       	eor	r19, r18
 248:	20 7f       	andi	r18, 0xF0	; 240
 24a:	32 27       	eor	r19, r18
 24c:	20 93 ec 00 	sts	0x00EC, r18	; 0x8000ec <__TEXT_REGION_LENGTH__+0x7fc0ec>
 250:	24 e1       	ldi	r18, 0x14	; 20
 252:	e0 e0       	ldi	r30, 0x00	; 0
 254:	f1 e0       	ldi	r31, 0x01	; 1
 256:	de 01       	movw	r26, r28
 258:	a7 59       	subi	r26, 0x97	; 151
 25a:	be 4f       	sbci	r27, 0xFE	; 254
 25c:	01 90       	ld	r0, Z+
 25e:	0d 92       	st	X+, r0
 260:	2a 95       	dec	r18
 262:	e1 f7       	brne	.-8      	; 0x25c <__EEPROM_REGION_LENGTH__+0x5c>
 264:	e9 e6       	ldi	r30, 0x69	; 105
 266:	f1 e0       	ldi	r31, 0x01	; 1
 268:	ec 0f       	add	r30, r28
 26a:	fd 1f       	adc	r31, r29
 26c:	e8 0f       	add	r30, r24
 26e:	f9 1f       	adc	r31, r25
 270:	20 81       	ld	r18, Z
 272:	20 7f       	andi	r18, 0xF0	; 240
 274:	20 93 f1 00 	sts	0x00F1, r18	; 0x8000f1 <__TEXT_REGION_LENGTH__+0x7fc0f1>
 278:	24 e1       	ldi	r18, 0x14	; 20
 27a:	e0 e0       	ldi	r30, 0x00	; 0
 27c:	f1 e0       	ldi	r31, 0x01	; 1
 27e:	de 01       	movw	r26, r28
 280:	ab 5a       	subi	r26, 0xAB	; 171
 282:	be 4f       	sbci	r27, 0xFE	; 254
 284:	01 90       	ld	r0, Z+
 286:	0d 92       	st	X+, r0
 288:	2a 95       	dec	r18
 28a:	e1 f7       	brne	.-8      	; 0x284 <__EEPROM_REGION_LENGTH__+0x84>
 28c:	e5 e5       	ldi	r30, 0x55	; 85
 28e:	f1 e0       	ldi	r31, 0x01	; 1
 290:	ec 0f       	add	r30, r28
 292:	fd 1f       	adc	r31, r29
 294:	e8 0f       	add	r30, r24
 296:	f9 1f       	adc	r31, r25
 298:	20 81       	ld	r18, Z
 29a:	31 81       	ldd	r19, Z+1	; 0x01
 29c:	22 27       	eor	r18, r18
 29e:	3f 70       	andi	r19, 0x0F	; 15
 2a0:	35 95       	asr	r19
 2a2:	27 95       	ror	r18
 2a4:	35 95       	asr	r19
 2a6:	27 95       	ror	r18
 2a8:	35 95       	asr	r19
 2aa:	27 95       	ror	r18
 2ac:	35 95       	asr	r19
 2ae:	27 95       	ror	r18
 2b0:	20 93 f6 00 	sts	0x00F6, r18	; 0x8000f6 <__TEXT_REGION_LENGTH__+0x7fc0f6>
 2b4:	24 e1       	ldi	r18, 0x14	; 20
 2b6:	e0 e0       	ldi	r30, 0x00	; 0
 2b8:	f1 e0       	ldi	r31, 0x01	; 1
 2ba:	de 01       	movw	r26, r28
 2bc:	af 5b       	subi	r26, 0xBF	; 191
 2be:	be 4f       	sbci	r27, 0xFE	; 254
 2c0:	01 90       	ld	r0, Z+
 2c2:	0d 92       	st	X+, r0
 2c4:	2a 95       	dec	r18
 2c6:	e1 f7       	brne	.-8      	; 0x2c0 <__EEPROM_REGION_LENGTH__+0xc0>
 2c8:	e1 e4       	ldi	r30, 0x41	; 65
 2ca:	f1 e0       	ldi	r31, 0x01	; 1
 2cc:	ec 0f       	add	r30, r28
 2ce:	fd 1f       	adc	r31, r29
 2d0:	e8 0f       	add	r30, r24
 2d2:	f9 1f       	adc	r31, r25
 2d4:	80 81       	ld	r24, Z
 2d6:	91 81       	ldd	r25, Z+1	; 0x01
 2d8:	88 27       	eor	r24, r24
 2da:	90 7f       	andi	r25, 0xF0	; 240
 2dc:	90 93 fb 00 	sts	0x00FB, r25	; 0x8000fb <__TEXT_REGION_LENGTH__+0x7fc0fb>
 2e0:	8f c1       	rjmp	.+798    	; 0x600 <__stack+0x101>
 2e2:	62 30       	cpi	r22, 0x02	; 2
 2e4:	71 05       	cpc	r23, r1
 2e6:	09 f0       	breq	.+2      	; 0x2ea <__EEPROM_REGION_LENGTH__+0xea>
 2e8:	63 c0       	rjmp	.+198    	; 0x3b0 <__EEPROM_REGION_LENGTH__+0x1b0>
 2ea:	84 e1       	ldi	r24, 0x14	; 20
 2ec:	e0 e0       	ldi	r30, 0x00	; 0
 2ee:	f1 e0       	ldi	r31, 0x01	; 1
 2f0:	de 01       	movw	r26, r28
 2f2:	a3 5d       	subi	r26, 0xD3	; 211
 2f4:	be 4f       	sbci	r27, 0xFE	; 254
 2f6:	01 90       	ld	r0, Z+
 2f8:	0d 92       	st	X+, r0
 2fa:	8a 95       	dec	r24
 2fc:	e1 f7       	brne	.-8      	; 0x2f6 <__EEPROM_REGION_LENGTH__+0xf6>
 2fe:	c9 01       	movw	r24, r18
 300:	88 0f       	add	r24, r24
 302:	99 1f       	adc	r25, r25
 304:	ed e2       	ldi	r30, 0x2D	; 45
 306:	f1 e0       	ldi	r31, 0x01	; 1
 308:	ec 0f       	add	r30, r28
 30a:	fd 1f       	adc	r31, r29
 30c:	e8 0f       	add	r30, r24
 30e:	f9 1f       	adc	r31, r25
 310:	20 81       	ld	r18, Z
 312:	2f 70       	andi	r18, 0x0F	; 15
 314:	20 93 ed 00 	sts	0x00ED, r18	; 0x8000ed <__TEXT_REGION_LENGTH__+0x7fc0ed>
 318:	24 e1       	ldi	r18, 0x14	; 20
 31a:	e0 e0       	ldi	r30, 0x00	; 0
 31c:	f1 e0       	ldi	r31, 0x01	; 1
 31e:	de 01       	movw	r26, r28
 320:	a7 5e       	subi	r26, 0xE7	; 231
 322:	be 4f       	sbci	r27, 0xFE	; 254
 324:	01 90       	ld	r0, Z+
 326:	0d 92       	st	X+, r0
 328:	2a 95       	dec	r18
 32a:	e1 f7       	brne	.-8      	; 0x324 <__EEPROM_REGION_LENGTH__+0x124>
 32c:	e9 e1       	ldi	r30, 0x19	; 25
 32e:	f1 e0       	ldi	r31, 0x01	; 1
 330:	ec 0f       	add	r30, r28
 332:	fd 1f       	adc	r31, r29
 334:	e8 0f       	add	r30, r24
 336:	f9 1f       	adc	r31, r25
 338:	20 81       	ld	r18, Z
 33a:	31 81       	ldd	r19, Z+1	; 0x01
 33c:	20 7f       	andi	r18, 0xF0	; 240
 33e:	33 27       	eor	r19, r19
 340:	35 95       	asr	r19
 342:	27 95       	ror	r18
 344:	35 95       	asr	r19
 346:	27 95       	ror	r18
 348:	35 95       	asr	r19
 34a:	27 95       	ror	r18
 34c:	35 95       	asr	r19
 34e:	27 95       	ror	r18
 350:	20 93 f2 00 	sts	0x00F2, r18	; 0x8000f2 <__TEXT_REGION_LENGTH__+0x7fc0f2>
 354:	24 e1       	ldi	r18, 0x14	; 20
 356:	e0 e0       	ldi	r30, 0x00	; 0
 358:	f1 e0       	ldi	r31, 0x01	; 1
 35a:	de 01       	movw	r26, r28
 35c:	ab 5f       	subi	r26, 0xFB	; 251
 35e:	be 4f       	sbci	r27, 0xFE	; 254
 360:	01 90       	ld	r0, Z+
 362:	0d 92       	st	X+, r0
 364:	2a 95       	dec	r18
 366:	e1 f7       	brne	.-8      	; 0x360 <__EEPROM_REGION_LENGTH__+0x160>
 368:	e5 e0       	ldi	r30, 0x05	; 5
 36a:	f1 e0       	ldi	r31, 0x01	; 1
 36c:	ec 0f       	add	r30, r28
 36e:	fd 1f       	adc	r31, r29
 370:	e8 0f       	add	r30, r24
 372:	f9 1f       	adc	r31, r25
 374:	20 81       	ld	r18, Z
 376:	31 81       	ldd	r19, Z+1	; 0x01
 378:	22 27       	eor	r18, r18
 37a:	3f 70       	andi	r19, 0x0F	; 15
 37c:	30 93 f7 00 	sts	0x00F7, r19	; 0x8000f7 <__TEXT_REGION_LENGTH__+0x7fc0f7>
 380:	24 e1       	ldi	r18, 0x14	; 20
 382:	e0 e0       	ldi	r30, 0x00	; 0
 384:	f1 e0       	ldi	r31, 0x01	; 1
 386:	de 01       	movw	r26, r28
 388:	af 50       	subi	r26, 0x0F	; 15
 38a:	bf 4f       	sbci	r27, 0xFF	; 255
 38c:	01 90       	ld	r0, Z+
 38e:	0d 92       	st	X+, r0
 390:	2a 95       	dec	r18
 392:	e1 f7       	brne	.-8      	; 0x38c <__EEPROM_REGION_LENGTH__+0x18c>
 394:	e1 ef       	ldi	r30, 0xF1	; 241
 396:	f0 e0       	ldi	r31, 0x00	; 0
 398:	ec 0f       	add	r30, r28
 39a:	fd 1f       	adc	r31, r29
 39c:	e8 0f       	add	r30, r24
 39e:	f9 1f       	adc	r31, r25
 3a0:	81 81       	ldd	r24, Z+1	; 0x01
 3a2:	85 95       	asr	r24
 3a4:	85 95       	asr	r24
 3a6:	85 95       	asr	r24
 3a8:	85 95       	asr	r24
 3aa:	80 93 fc 00 	sts	0x00FC, r24	; 0x8000fc <__TEXT_REGION_LENGTH__+0x7fc0fc>
 3ae:	28 c1       	rjmp	.+592    	; 0x600 <__stack+0x101>
 3b0:	63 30       	cpi	r22, 0x03	; 3
 3b2:	71 05       	cpc	r23, r1
 3b4:	09 f0       	breq	.+2      	; 0x3b8 <__EEPROM_REGION_LENGTH__+0x1b8>
 3b6:	66 c0       	rjmp	.+204    	; 0x484 <__DATA_REGION_LENGTH__+0x84>
 3b8:	84 e1       	ldi	r24, 0x14	; 20
 3ba:	e0 e0       	ldi	r30, 0x00	; 0
 3bc:	f1 e0       	ldi	r31, 0x01	; 1
 3be:	de 01       	movw	r26, r28
 3c0:	a3 52       	subi	r26, 0x23	; 35
 3c2:	bf 4f       	sbci	r27, 0xFF	; 255
 3c4:	01 90       	ld	r0, Z+
 3c6:	0d 92       	st	X+, r0
 3c8:	8a 95       	dec	r24
 3ca:	e1 f7       	brne	.-8      	; 0x3c4 <__EEPROM_REGION_LENGTH__+0x1c4>
 3cc:	c9 01       	movw	r24, r18
 3ce:	88 0f       	add	r24, r24
 3d0:	99 1f       	adc	r25, r25
 3d2:	ed ed       	ldi	r30, 0xDD	; 221
 3d4:	f0 e0       	ldi	r31, 0x00	; 0
 3d6:	ec 0f       	add	r30, r28
 3d8:	fd 1f       	adc	r31, r29
 3da:	e8 0f       	add	r30, r24
 3dc:	f9 1f       	adc	r31, r25
 3de:	20 81       	ld	r18, Z
 3e0:	31 81       	ldd	r19, Z+1	; 0x01
 3e2:	22 95       	swap	r18
 3e4:	32 95       	swap	r19
 3e6:	30 7f       	andi	r19, 0xF0	; 240
 3e8:	32 27       	eor	r19, r18
 3ea:	20 7f       	andi	r18, 0xF0	; 240
 3ec:	32 27       	eor	r19, r18
 3ee:	20 93 ed 00 	sts	0x00ED, r18	; 0x8000ed <__TEXT_REGION_LENGTH__+0x7fc0ed>
 3f2:	24 e1       	ldi	r18, 0x14	; 20
 3f4:	e0 e0       	ldi	r30, 0x00	; 0
 3f6:	f1 e0       	ldi	r31, 0x01	; 1
 3f8:	de 01       	movw	r26, r28
 3fa:	a7 53       	subi	r26, 0x37	; 55
 3fc:	bf 4f       	sbci	r27, 0xFF	; 255
 3fe:	01 90       	ld	r0, Z+
 400:	0d 92       	st	X+, r0
 402:	2a 95       	dec	r18
 404:	e1 f7       	brne	.-8      	; 0x3fe <__EEPROM_REGION_LENGTH__+0x1fe>
 406:	e9 ec       	ldi	r30, 0xC9	; 201
 408:	f0 e0       	ldi	r31, 0x00	; 0
 40a:	ec 0f       	add	r30, r28
 40c:	fd 1f       	adc	r31, r29
 40e:	e8 0f       	add	r30, r24
 410:	f9 1f       	adc	r31, r25
 412:	20 81       	ld	r18, Z
 414:	20 7f       	andi	r18, 0xF0	; 240
 416:	20 93 f2 00 	sts	0x00F2, r18	; 0x8000f2 <__TEXT_REGION_LENGTH__+0x7fc0f2>
 41a:	24 e1       	ldi	r18, 0x14	; 20
 41c:	e0 e0       	ldi	r30, 0x00	; 0
 41e:	f1 e0       	ldi	r31, 0x01	; 1
 420:	de 01       	movw	r26, r28
 422:	ab 54       	subi	r26, 0x4B	; 75
 424:	bf 4f       	sbci	r27, 0xFF	; 255
 426:	01 90       	ld	r0, Z+
 428:	0d 92       	st	X+, r0
 42a:	2a 95       	dec	r18
 42c:	e1 f7       	brne	.-8      	; 0x426 <__DATA_REGION_LENGTH__+0x26>
 42e:	e5 eb       	ldi	r30, 0xB5	; 181
 430:	f0 e0       	ldi	r31, 0x00	; 0
 432:	ec 0f       	add	r30, r28
 434:	fd 1f       	adc	r31, r29
 436:	e8 0f       	add	r30, r24
 438:	f9 1f       	adc	r31, r25
 43a:	20 81       	ld	r18, Z
 43c:	31 81       	ldd	r19, Z+1	; 0x01
 43e:	22 27       	eor	r18, r18
 440:	3f 70       	andi	r19, 0x0F	; 15
 442:	35 95       	asr	r19
 444:	27 95       	ror	r18
 446:	35 95       	asr	r19
 448:	27 95       	ror	r18
 44a:	35 95       	asr	r19
 44c:	27 95       	ror	r18
 44e:	35 95       	asr	r19
 450:	27 95       	ror	r18
 452:	20 93 f7 00 	sts	0x00F7, r18	; 0x8000f7 <__TEXT_REGION_LENGTH__+0x7fc0f7>
 456:	24 e1       	ldi	r18, 0x14	; 20
 458:	e0 e0       	ldi	r30, 0x00	; 0
 45a:	f1 e0       	ldi	r31, 0x01	; 1
 45c:	de 01       	movw	r26, r28
 45e:	af 55       	subi	r26, 0x5F	; 95
 460:	bf 4f       	sbci	r27, 0xFF	; 255
 462:	01 90       	ld	r0, Z+
 464:	0d 92       	st	X+, r0
 466:	2a 95       	dec	r18
 468:	e1 f7       	brne	.-8      	; 0x462 <__DATA_REGION_LENGTH__+0x62>
 46a:	e1 ea       	ldi	r30, 0xA1	; 161
 46c:	f0 e0       	ldi	r31, 0x00	; 0
 46e:	ec 0f       	add	r30, r28
 470:	fd 1f       	adc	r31, r29
 472:	e8 0f       	add	r30, r24
 474:	f9 1f       	adc	r31, r25
 476:	80 81       	ld	r24, Z
 478:	91 81       	ldd	r25, Z+1	; 0x01
 47a:	88 27       	eor	r24, r24
 47c:	90 7f       	andi	r25, 0xF0	; 240
 47e:	90 93 fc 00 	sts	0x00FC, r25	; 0x8000fc <__TEXT_REGION_LENGTH__+0x7fc0fc>
 482:	be c0       	rjmp	.+380    	; 0x600 <__stack+0x101>
 484:	64 30       	cpi	r22, 0x04	; 4
 486:	71 05       	cpc	r23, r1
 488:	09 f0       	breq	.+2      	; 0x48c <__DATA_REGION_LENGTH__+0x8c>
 48a:	63 c0       	rjmp	.+198    	; 0x552 <__stack+0x53>
 48c:	84 e1       	ldi	r24, 0x14	; 20
 48e:	e0 e0       	ldi	r30, 0x00	; 0
 490:	f1 e0       	ldi	r31, 0x01	; 1
 492:	de 01       	movw	r26, r28
 494:	a3 57       	subi	r26, 0x73	; 115
 496:	bf 4f       	sbci	r27, 0xFF	; 255
 498:	01 90       	ld	r0, Z+
 49a:	0d 92       	st	X+, r0
 49c:	8a 95       	dec	r24
 49e:	e1 f7       	brne	.-8      	; 0x498 <__DATA_REGION_LENGTH__+0x98>
 4a0:	c9 01       	movw	r24, r18
 4a2:	88 0f       	add	r24, r24
 4a4:	99 1f       	adc	r25, r25
 4a6:	ed e8       	ldi	r30, 0x8D	; 141
 4a8:	f0 e0       	ldi	r31, 0x00	; 0
 4aa:	ec 0f       	add	r30, r28
 4ac:	fd 1f       	adc	r31, r29
 4ae:	e8 0f       	add	r30, r24
 4b0:	f9 1f       	adc	r31, r25
 4b2:	20 81       	ld	r18, Z
 4b4:	2f 70       	andi	r18, 0x0F	; 15
 4b6:	20 93 ee 00 	sts	0x00EE, r18	; 0x8000ee <__TEXT_REGION_LENGTH__+0x7fc0ee>
 4ba:	24 e1       	ldi	r18, 0x14	; 20
 4bc:	e0 e0       	ldi	r30, 0x00	; 0
 4be:	f1 e0       	ldi	r31, 0x01	; 1
 4c0:	de 01       	movw	r26, r28
 4c2:	a7 58       	subi	r26, 0x87	; 135
 4c4:	bf 4f       	sbci	r27, 0xFF	; 255
 4c6:	01 90       	ld	r0, Z+
 4c8:	0d 92       	st	X+, r0
 4ca:	2a 95       	dec	r18
 4cc:	e1 f7       	brne	.-8      	; 0x4c6 <__DATA_REGION_LENGTH__+0xc6>
 4ce:	e9 e7       	ldi	r30, 0x79	; 121
 4d0:	f0 e0       	ldi	r31, 0x00	; 0
 4d2:	ec 0f       	add	r30, r28
 4d4:	fd 1f       	adc	r31, r29
 4d6:	e8 0f       	add	r30, r24
 4d8:	f9 1f       	adc	r31, r25
 4da:	20 81       	ld	r18, Z
 4dc:	31 81       	ldd	r19, Z+1	; 0x01
 4de:	20 7f       	andi	r18, 0xF0	; 240
 4e0:	33 27       	eor	r19, r19
 4e2:	35 95       	asr	r19
 4e4:	27 95       	ror	r18
 4e6:	35 95       	asr	r19
 4e8:	27 95       	ror	r18
 4ea:	35 95       	asr	r19
 4ec:	27 95       	ror	r18
 4ee:	35 95       	asr	r19
 4f0:	27 95       	ror	r18
 4f2:	20 93 f3 00 	sts	0x00F3, r18	; 0x8000f3 <__TEXT_REGION_LENGTH__+0x7fc0f3>
 4f6:	24 e1       	ldi	r18, 0x14	; 20
 4f8:	e0 e0       	ldi	r30, 0x00	; 0
 4fa:	f1 e0       	ldi	r31, 0x01	; 1
 4fc:	de 01       	movw	r26, r28
 4fe:	ab 59       	subi	r26, 0x9B	; 155
 500:	bf 4f       	sbci	r27, 0xFF	; 255
 502:	01 90       	ld	r0, Z+
 504:	0d 92       	st	X+, r0
 506:	2a 95       	dec	r18
 508:	e1 f7       	brne	.-8      	; 0x502 <__stack+0x3>
 50a:	e5 e6       	ldi	r30, 0x65	; 101
 50c:	f0 e0       	ldi	r31, 0x00	; 0
 50e:	ec 0f       	add	r30, r28
 510:	fd 1f       	adc	r31, r29
 512:	e8 0f       	add	r30, r24
 514:	f9 1f       	adc	r31, r25
 516:	20 81       	ld	r18, Z
 518:	31 81       	ldd	r19, Z+1	; 0x01
 51a:	22 27       	eor	r18, r18
 51c:	3f 70       	andi	r19, 0x0F	; 15
 51e:	30 93 f8 00 	sts	0x00F8, r19	; 0x8000f8 <__TEXT_REGION_LENGTH__+0x7fc0f8>
 522:	24 e1       	ldi	r18, 0x14	; 20
 524:	e0 e0       	ldi	r30, 0x00	; 0
 526:	f1 e0       	ldi	r31, 0x01	; 1
 528:	de 01       	movw	r26, r28
 52a:	af 5a       	subi	r26, 0xAF	; 175
 52c:	bf 4f       	sbci	r27, 0xFF	; 255
 52e:	01 90       	ld	r0, Z+
 530:	0d 92       	st	X+, r0
 532:	2a 95       	dec	r18
 534:	e1 f7       	brne	.-8      	; 0x52e <__stack+0x2f>
 536:	e1 e5       	ldi	r30, 0x51	; 81
 538:	f0 e0       	ldi	r31, 0x00	; 0
 53a:	ec 0f       	add	r30, r28
 53c:	fd 1f       	adc	r31, r29
 53e:	e8 0f       	add	r30, r24
 540:	f9 1f       	adc	r31, r25
 542:	81 81       	ldd	r24, Z+1	; 0x01
 544:	85 95       	asr	r24
 546:	85 95       	asr	r24
 548:	85 95       	asr	r24
 54a:	85 95       	asr	r24
 54c:	80 93 fd 00 	sts	0x00FD, r24	; 0x8000fd <__TEXT_REGION_LENGTH__+0x7fc0fd>
 550:	57 c0       	rjmp	.+174    	; 0x600 <__stack+0x101>
 552:	65 30       	cpi	r22, 0x05	; 5
 554:	71 05       	cpc	r23, r1
 556:	09 f0       	breq	.+2      	; 0x55a <__stack+0x5b>
 558:	53 c0       	rjmp	.+166    	; 0x600 <__stack+0x101>
 55a:	84 e1       	ldi	r24, 0x14	; 20
 55c:	e0 e0       	ldi	r30, 0x00	; 0
 55e:	f1 e0       	ldi	r31, 0x01	; 1
 560:	de 01       	movw	r26, r28
 562:	dd 96       	adiw	r26, 0x3d	; 61
 564:	01 90       	ld	r0, Z+
 566:	0d 92       	st	X+, r0
 568:	8a 95       	dec	r24
 56a:	e1 f7       	brne	.-8      	; 0x564 <__stack+0x65>
 56c:	c9 01       	movw	r24, r18
 56e:	88 0f       	add	r24, r24
 570:	99 1f       	adc	r25, r25
 572:	21 e0       	ldi	r18, 0x01	; 1
 574:	30 e0       	ldi	r19, 0x00	; 0
 576:	2c 0f       	add	r18, r28
 578:	3d 1f       	adc	r19, r29
 57a:	82 0f       	add	r24, r18
 57c:	93 1f       	adc	r25, r19
 57e:	fc 01       	movw	r30, r24
 580:	24 ad       	ldd	r18, Z+60	; 0x3c
 582:	35 ad       	ldd	r19, Z+61	; 0x3d
 584:	22 95       	swap	r18
 586:	32 95       	swap	r19
 588:	30 7f       	andi	r19, 0xF0	; 240
 58a:	32 27       	eor	r19, r18
 58c:	20 7f       	andi	r18, 0xF0	; 240
 58e:	32 27       	eor	r19, r18
 590:	20 93 ee 00 	sts	0x00EE, r18	; 0x8000ee <__TEXT_REGION_LENGTH__+0x7fc0ee>
 594:	24 e1       	ldi	r18, 0x14	; 20
 596:	e0 e0       	ldi	r30, 0x00	; 0
 598:	f1 e0       	ldi	r31, 0x01	; 1
 59a:	de 01       	movw	r26, r28
 59c:	99 96       	adiw	r26, 0x29	; 41
 59e:	01 90       	ld	r0, Z+
 5a0:	0d 92       	st	X+, r0
 5a2:	2a 95       	dec	r18
 5a4:	e1 f7       	brne	.-8      	; 0x59e <__stack+0x9f>
 5a6:	fc 01       	movw	r30, r24
 5a8:	20 a5       	ldd	r18, Z+40	; 0x28
 5aa:	20 7f       	andi	r18, 0xF0	; 240
 5ac:	20 93 f3 00 	sts	0x00F3, r18	; 0x8000f3 <__TEXT_REGION_LENGTH__+0x7fc0f3>
 5b0:	24 e1       	ldi	r18, 0x14	; 20
 5b2:	e0 e0       	ldi	r30, 0x00	; 0
 5b4:	f1 e0       	ldi	r31, 0x01	; 1
 5b6:	de 01       	movw	r26, r28
 5b8:	55 96       	adiw	r26, 0x15	; 21
 5ba:	01 90       	ld	r0, Z+
 5bc:	0d 92       	st	X+, r0
 5be:	2a 95       	dec	r18
 5c0:	e1 f7       	brne	.-8      	; 0x5ba <__stack+0xbb>
 5c2:	fc 01       	movw	r30, r24
 5c4:	24 89       	ldd	r18, Z+20	; 0x14
 5c6:	35 89       	ldd	r19, Z+21	; 0x15
 5c8:	22 27       	eor	r18, r18
 5ca:	3f 70       	andi	r19, 0x0F	; 15
 5cc:	35 95       	asr	r19
 5ce:	27 95       	ror	r18
 5d0:	35 95       	asr	r19
 5d2:	27 95       	ror	r18
 5d4:	35 95       	asr	r19
 5d6:	27 95       	ror	r18
 5d8:	35 95       	asr	r19
 5da:	27 95       	ror	r18
 5dc:	20 93 f8 00 	sts	0x00F8, r18	; 0x8000f8 <__TEXT_REGION_LENGTH__+0x7fc0f8>
 5e0:	24 e1       	ldi	r18, 0x14	; 20
 5e2:	e0 e0       	ldi	r30, 0x00	; 0
 5e4:	f1 e0       	ldi	r31, 0x01	; 1
 5e6:	de 01       	movw	r26, r28
 5e8:	11 96       	adiw	r26, 0x01	; 1
 5ea:	01 90       	ld	r0, Z+
 5ec:	0d 92       	st	X+, r0
 5ee:	2a 95       	dec	r18
 5f0:	e1 f7       	brne	.-8      	; 0x5ea <__stack+0xeb>
 5f2:	fc 01       	movw	r30, r24
 5f4:	80 81       	ld	r24, Z
 5f6:	91 81       	ldd	r25, Z+1	; 0x01
 5f8:	88 27       	eor	r24, r24
 5fa:	90 7f       	andi	r25, 0xF0	; 240
 5fc:	90 93 fd 00 	sts	0x00FD, r25	; 0x8000fd <__TEXT_REGION_LENGTH__+0x7fc0fd>
 600:	c0 52       	subi	r28, 0x20	; 32
 602:	de 4f       	sbci	r29, 0xFE	; 254
 604:	0f b6       	in	r0, 0x3f	; 63
 606:	f8 94       	cli
 608:	de bf       	out	0x3e, r29	; 62
 60a:	0f be       	out	0x3f, r0	; 63
 60c:	cd bf       	out	0x3d, r28	; 61
 60e:	df 91       	pop	r29
 610:	cf 91       	pop	r28
 612:	08 95       	ret

00000614 <is_prime>:

}

bool is_prime(long i) {
 614:	cf 92       	push	r12
 616:	df 92       	push	r13
 618:	ef 92       	push	r14
 61a:	ff 92       	push	r15
 61c:	0f 93       	push	r16
 61e:	1f 93       	push	r17
 620:	cf 93       	push	r28
 622:	df 93       	push	r29
 624:	6b 01       	movw	r12, r22
 626:	7c 01       	movw	r14, r24
	int k = ceil(sqrt(i));
 628:	c7 01       	movw	r24, r14
 62a:	b6 01       	movw	r22, r12
 62c:	0e 94 9f 03 	call	0x73e	; 0x73e <__floatsisf>
 630:	0e 94 4a 04 	call	0x894	; 0x894 <sqrt>
 634:	0e 94 50 03 	call	0x6a0	; 0x6a0 <ceil>
 638:	0e 94 67 03 	call	0x6ce	; 0x6ce <__fixsfsi>
 63c:	8b 01       	movw	r16, r22
	for(int j=2; j<=k;j++){
 63e:	c2 e0       	ldi	r28, 0x02	; 2
 640:	d0 e0       	ldi	r29, 0x00	; 0
 642:	0e c0       	rjmp	.+28     	; 0x660 <is_prime+0x4c>
		if(i%j==0){
 644:	c7 01       	movw	r24, r14
 646:	b6 01       	movw	r22, r12
 648:	9e 01       	movw	r18, r28
 64a:	0d 2e       	mov	r0, r29
 64c:	00 0c       	add	r0, r0
 64e:	44 0b       	sbc	r20, r20
 650:	55 0b       	sbc	r21, r21
 652:	0e 94 94 04 	call	0x928	; 0x928 <__divmodsi4>
 656:	67 2b       	or	r22, r23
 658:	68 2b       	or	r22, r24
 65a:	69 2b       	or	r22, r25
 65c:	31 f0       	breq	.+12     	; 0x66a <is_prime+0x56>

}

bool is_prime(long i) {
	int k = ceil(sqrt(i));
	for(int j=2; j<=k;j++){
 65e:	21 96       	adiw	r28, 0x01	; 1
 660:	0c 17       	cp	r16, r28
 662:	1d 07       	cpc	r17, r29
 664:	7c f7       	brge	.-34     	; 0x644 <is_prime+0x30>
		if(i%j==0){
			return true;
		}
	}
	return false;
 666:	80 e0       	ldi	r24, 0x00	; 0
 668:	01 c0       	rjmp	.+2      	; 0x66c <is_prime+0x58>

bool is_prime(long i) {
	int k = ceil(sqrt(i));
	for(int j=2; j<=k;j++){
		if(i%j==0){
			return true;
 66a:	81 e0       	ldi	r24, 0x01	; 1
		}
	}
	return false;
}
 66c:	df 91       	pop	r29
 66e:	cf 91       	pop	r28
 670:	1f 91       	pop	r17
 672:	0f 91       	pop	r16
 674:	ff 90       	pop	r15
 676:	ef 90       	pop	r14
 678:	df 90       	pop	r13
 67a:	cf 90       	pop	r12
 67c:	08 95       	ret

0000067e <main>:

int main(void)
{	
	LCD_Init();
 67e:	0e 94 45 00 	call	0x8a	; 0x8a <LCD_Init>
    writeChar(5,5);
 682:	65 e0       	ldi	r22, 0x05	; 5
 684:	70 e0       	ldi	r23, 0x00	; 0
 686:	85 e0       	ldi	r24, 0x05	; 5
 688:	90 e0       	ldi	r25, 0x00	; 0
 68a:	0e 94 57 00 	call	0xae	; 0xae <writeChar>
    is_prime(20);
 68e:	64 e1       	ldi	r22, 0x14	; 20
 690:	70 e0       	ldi	r23, 0x00	; 0
 692:	80 e0       	ldi	r24, 0x00	; 0
 694:	90 e0       	ldi	r25, 0x00	; 0
 696:	0e 94 0a 03 	call	0x614	; 0x614 <is_prime>

}
 69a:	80 e0       	ldi	r24, 0x00	; 0
 69c:	90 e0       	ldi	r25, 0x00	; 0
 69e:	08 95       	ret

000006a0 <ceil>:
 6a0:	0e 94 25 04 	call	0x84a	; 0x84a <__fp_trunc>
 6a4:	90 f0       	brcs	.+36     	; 0x6ca <ceil+0x2a>
 6a6:	9f 37       	cpi	r25, 0x7F	; 127
 6a8:	48 f4       	brcc	.+18     	; 0x6bc <ceil+0x1c>
 6aa:	91 11       	cpse	r25, r1
 6ac:	16 f4       	brtc	.+4      	; 0x6b2 <ceil+0x12>
 6ae:	0c 94 3e 04 	jmp	0x87c	; 0x87c <__fp_szero>
 6b2:	60 e0       	ldi	r22, 0x00	; 0
 6b4:	70 e0       	ldi	r23, 0x00	; 0
 6b6:	80 e8       	ldi	r24, 0x80	; 128
 6b8:	9f e3       	ldi	r25, 0x3F	; 63
 6ba:	08 95       	ret
 6bc:	26 f0       	brts	.+8      	; 0x6c6 <ceil+0x26>
 6be:	1b 16       	cp	r1, r27
 6c0:	61 1d       	adc	r22, r1
 6c2:	71 1d       	adc	r23, r1
 6c4:	81 1d       	adc	r24, r1
 6c6:	0c 94 da 03 	jmp	0x7b4	; 0x7b4 <__fp_mintl>
 6ca:	0c 94 f5 03 	jmp	0x7ea	; 0x7ea <__fp_mpack>

000006ce <__fixsfsi>:
 6ce:	0e 94 6e 03 	call	0x6dc	; 0x6dc <__fixunssfsi>
 6d2:	68 94       	set
 6d4:	b1 11       	cpse	r27, r1
 6d6:	0c 94 3e 04 	jmp	0x87c	; 0x87c <__fp_szero>
 6da:	08 95       	ret

000006dc <__fixunssfsi>:
 6dc:	0e 94 0b 04 	call	0x816	; 0x816 <__fp_splitA>
 6e0:	88 f0       	brcs	.+34     	; 0x704 <__fixunssfsi+0x28>
 6e2:	9f 57       	subi	r25, 0x7F	; 127
 6e4:	98 f0       	brcs	.+38     	; 0x70c <__fixunssfsi+0x30>
 6e6:	b9 2f       	mov	r27, r25
 6e8:	99 27       	eor	r25, r25
 6ea:	b7 51       	subi	r27, 0x17	; 23
 6ec:	b0 f0       	brcs	.+44     	; 0x71a <__fixunssfsi+0x3e>
 6ee:	e1 f0       	breq	.+56     	; 0x728 <__fixunssfsi+0x4c>
 6f0:	66 0f       	add	r22, r22
 6f2:	77 1f       	adc	r23, r23
 6f4:	88 1f       	adc	r24, r24
 6f6:	99 1f       	adc	r25, r25
 6f8:	1a f0       	brmi	.+6      	; 0x700 <__fixunssfsi+0x24>
 6fa:	ba 95       	dec	r27
 6fc:	c9 f7       	brne	.-14     	; 0x6f0 <__fixunssfsi+0x14>
 6fe:	14 c0       	rjmp	.+40     	; 0x728 <__fixunssfsi+0x4c>
 700:	b1 30       	cpi	r27, 0x01	; 1
 702:	91 f0       	breq	.+36     	; 0x728 <__fixunssfsi+0x4c>
 704:	0e 94 3d 04 	call	0x87a	; 0x87a <__fp_zero>
 708:	b1 e0       	ldi	r27, 0x01	; 1
 70a:	08 95       	ret
 70c:	0c 94 3d 04 	jmp	0x87a	; 0x87a <__fp_zero>
 710:	67 2f       	mov	r22, r23
 712:	78 2f       	mov	r23, r24
 714:	88 27       	eor	r24, r24
 716:	b8 5f       	subi	r27, 0xF8	; 248
 718:	39 f0       	breq	.+14     	; 0x728 <__fixunssfsi+0x4c>
 71a:	b9 3f       	cpi	r27, 0xF9	; 249
 71c:	cc f3       	brlt	.-14     	; 0x710 <__fixunssfsi+0x34>
 71e:	86 95       	lsr	r24
 720:	77 95       	ror	r23
 722:	67 95       	ror	r22
 724:	b3 95       	inc	r27
 726:	d9 f7       	brne	.-10     	; 0x71e <__fixunssfsi+0x42>
 728:	3e f4       	brtc	.+14     	; 0x738 <__fixunssfsi+0x5c>
 72a:	90 95       	com	r25
 72c:	80 95       	com	r24
 72e:	70 95       	com	r23
 730:	61 95       	neg	r22
 732:	7f 4f       	sbci	r23, 0xFF	; 255
 734:	8f 4f       	sbci	r24, 0xFF	; 255
 736:	9f 4f       	sbci	r25, 0xFF	; 255
 738:	08 95       	ret

0000073a <__floatunsisf>:
 73a:	e8 94       	clt
 73c:	09 c0       	rjmp	.+18     	; 0x750 <__floatsisf+0x12>

0000073e <__floatsisf>:
 73e:	97 fb       	bst	r25, 7
 740:	3e f4       	brtc	.+14     	; 0x750 <__floatsisf+0x12>
 742:	90 95       	com	r25
 744:	80 95       	com	r24
 746:	70 95       	com	r23
 748:	61 95       	neg	r22
 74a:	7f 4f       	sbci	r23, 0xFF	; 255
 74c:	8f 4f       	sbci	r24, 0xFF	; 255
 74e:	9f 4f       	sbci	r25, 0xFF	; 255
 750:	99 23       	and	r25, r25
 752:	a9 f0       	breq	.+42     	; 0x77e <__floatsisf+0x40>
 754:	f9 2f       	mov	r31, r25
 756:	96 e9       	ldi	r25, 0x96	; 150
 758:	bb 27       	eor	r27, r27
 75a:	93 95       	inc	r25
 75c:	f6 95       	lsr	r31
 75e:	87 95       	ror	r24
 760:	77 95       	ror	r23
 762:	67 95       	ror	r22
 764:	b7 95       	ror	r27
 766:	f1 11       	cpse	r31, r1
 768:	f8 cf       	rjmp	.-16     	; 0x75a <__floatsisf+0x1c>
 76a:	fa f4       	brpl	.+62     	; 0x7aa <__floatsisf+0x6c>
 76c:	bb 0f       	add	r27, r27
 76e:	11 f4       	brne	.+4      	; 0x774 <__floatsisf+0x36>
 770:	60 ff       	sbrs	r22, 0
 772:	1b c0       	rjmp	.+54     	; 0x7aa <__floatsisf+0x6c>
 774:	6f 5f       	subi	r22, 0xFF	; 255
 776:	7f 4f       	sbci	r23, 0xFF	; 255
 778:	8f 4f       	sbci	r24, 0xFF	; 255
 77a:	9f 4f       	sbci	r25, 0xFF	; 255
 77c:	16 c0       	rjmp	.+44     	; 0x7aa <__floatsisf+0x6c>
 77e:	88 23       	and	r24, r24
 780:	11 f0       	breq	.+4      	; 0x786 <__floatsisf+0x48>
 782:	96 e9       	ldi	r25, 0x96	; 150
 784:	11 c0       	rjmp	.+34     	; 0x7a8 <__floatsisf+0x6a>
 786:	77 23       	and	r23, r23
 788:	21 f0       	breq	.+8      	; 0x792 <__floatsisf+0x54>
 78a:	9e e8       	ldi	r25, 0x8E	; 142
 78c:	87 2f       	mov	r24, r23
 78e:	76 2f       	mov	r23, r22
 790:	05 c0       	rjmp	.+10     	; 0x79c <__floatsisf+0x5e>
 792:	66 23       	and	r22, r22
 794:	71 f0       	breq	.+28     	; 0x7b2 <__floatsisf+0x74>
 796:	96 e8       	ldi	r25, 0x86	; 134
 798:	86 2f       	mov	r24, r22
 79a:	70 e0       	ldi	r23, 0x00	; 0
 79c:	60 e0       	ldi	r22, 0x00	; 0
 79e:	2a f0       	brmi	.+10     	; 0x7aa <__floatsisf+0x6c>
 7a0:	9a 95       	dec	r25
 7a2:	66 0f       	add	r22, r22
 7a4:	77 1f       	adc	r23, r23
 7a6:	88 1f       	adc	r24, r24
 7a8:	da f7       	brpl	.-10     	; 0x7a0 <__floatsisf+0x62>
 7aa:	88 0f       	add	r24, r24
 7ac:	96 95       	lsr	r25
 7ae:	87 95       	ror	r24
 7b0:	97 f9       	bld	r25, 7
 7b2:	08 95       	ret

000007b4 <__fp_mintl>:
 7b4:	88 23       	and	r24, r24
 7b6:	71 f4       	brne	.+28     	; 0x7d4 <__fp_mintl+0x20>
 7b8:	77 23       	and	r23, r23
 7ba:	21 f0       	breq	.+8      	; 0x7c4 <__fp_mintl+0x10>
 7bc:	98 50       	subi	r25, 0x08	; 8
 7be:	87 2b       	or	r24, r23
 7c0:	76 2f       	mov	r23, r22
 7c2:	07 c0       	rjmp	.+14     	; 0x7d2 <__fp_mintl+0x1e>
 7c4:	66 23       	and	r22, r22
 7c6:	11 f4       	brne	.+4      	; 0x7cc <__fp_mintl+0x18>
 7c8:	99 27       	eor	r25, r25
 7ca:	0d c0       	rjmp	.+26     	; 0x7e6 <__fp_mintl+0x32>
 7cc:	90 51       	subi	r25, 0x10	; 16
 7ce:	86 2b       	or	r24, r22
 7d0:	70 e0       	ldi	r23, 0x00	; 0
 7d2:	60 e0       	ldi	r22, 0x00	; 0
 7d4:	2a f0       	brmi	.+10     	; 0x7e0 <__fp_mintl+0x2c>
 7d6:	9a 95       	dec	r25
 7d8:	66 0f       	add	r22, r22
 7da:	77 1f       	adc	r23, r23
 7dc:	88 1f       	adc	r24, r24
 7de:	da f7       	brpl	.-10     	; 0x7d6 <__fp_mintl+0x22>
 7e0:	88 0f       	add	r24, r24
 7e2:	96 95       	lsr	r25
 7e4:	87 95       	ror	r24
 7e6:	97 f9       	bld	r25, 7
 7e8:	08 95       	ret

000007ea <__fp_mpack>:
 7ea:	9f 3f       	cpi	r25, 0xFF	; 255
 7ec:	31 f0       	breq	.+12     	; 0x7fa <__fp_mpack_finite+0xc>

000007ee <__fp_mpack_finite>:
 7ee:	91 50       	subi	r25, 0x01	; 1
 7f0:	20 f4       	brcc	.+8      	; 0x7fa <__fp_mpack_finite+0xc>
 7f2:	87 95       	ror	r24
 7f4:	77 95       	ror	r23
 7f6:	67 95       	ror	r22
 7f8:	b7 95       	ror	r27
 7fa:	88 0f       	add	r24, r24
 7fc:	91 1d       	adc	r25, r1
 7fe:	96 95       	lsr	r25
 800:	87 95       	ror	r24
 802:	97 f9       	bld	r25, 7
 804:	08 95       	ret

00000806 <__fp_split3>:
 806:	57 fd       	sbrc	r21, 7
 808:	90 58       	subi	r25, 0x80	; 128
 80a:	44 0f       	add	r20, r20
 80c:	55 1f       	adc	r21, r21
 80e:	59 f0       	breq	.+22     	; 0x826 <__fp_splitA+0x10>
 810:	5f 3f       	cpi	r21, 0xFF	; 255
 812:	71 f0       	breq	.+28     	; 0x830 <__fp_splitA+0x1a>
 814:	47 95       	ror	r20

00000816 <__fp_splitA>:
 816:	88 0f       	add	r24, r24
 818:	97 fb       	bst	r25, 7
 81a:	99 1f       	adc	r25, r25
 81c:	61 f0       	breq	.+24     	; 0x836 <__fp_splitA+0x20>
 81e:	9f 3f       	cpi	r25, 0xFF	; 255
 820:	79 f0       	breq	.+30     	; 0x840 <__fp_splitA+0x2a>
 822:	87 95       	ror	r24
 824:	08 95       	ret
 826:	12 16       	cp	r1, r18
 828:	13 06       	cpc	r1, r19
 82a:	14 06       	cpc	r1, r20
 82c:	55 1f       	adc	r21, r21
 82e:	f2 cf       	rjmp	.-28     	; 0x814 <__fp_split3+0xe>
 830:	46 95       	lsr	r20
 832:	f1 df       	rcall	.-30     	; 0x816 <__fp_splitA>
 834:	08 c0       	rjmp	.+16     	; 0x846 <__fp_splitA+0x30>
 836:	16 16       	cp	r1, r22
 838:	17 06       	cpc	r1, r23
 83a:	18 06       	cpc	r1, r24
 83c:	99 1f       	adc	r25, r25
 83e:	f1 cf       	rjmp	.-30     	; 0x822 <__fp_splitA+0xc>
 840:	86 95       	lsr	r24
 842:	71 05       	cpc	r23, r1
 844:	61 05       	cpc	r22, r1
 846:	08 94       	sec
 848:	08 95       	ret

0000084a <__fp_trunc>:
 84a:	0e 94 0b 04 	call	0x816	; 0x816 <__fp_splitA>
 84e:	a0 f0       	brcs	.+40     	; 0x878 <__fp_trunc+0x2e>
 850:	be e7       	ldi	r27, 0x7E	; 126
 852:	b9 17       	cp	r27, r25
 854:	88 f4       	brcc	.+34     	; 0x878 <__fp_trunc+0x2e>
 856:	bb 27       	eor	r27, r27
 858:	9f 38       	cpi	r25, 0x8F	; 143
 85a:	60 f4       	brcc	.+24     	; 0x874 <__fp_trunc+0x2a>
 85c:	16 16       	cp	r1, r22
 85e:	b1 1d       	adc	r27, r1
 860:	67 2f       	mov	r22, r23
 862:	78 2f       	mov	r23, r24
 864:	88 27       	eor	r24, r24
 866:	98 5f       	subi	r25, 0xF8	; 248
 868:	f7 cf       	rjmp	.-18     	; 0x858 <__fp_trunc+0xe>
 86a:	86 95       	lsr	r24
 86c:	77 95       	ror	r23
 86e:	67 95       	ror	r22
 870:	b1 1d       	adc	r27, r1
 872:	93 95       	inc	r25
 874:	96 39       	cpi	r25, 0x96	; 150
 876:	c8 f3       	brcs	.-14     	; 0x86a <__fp_trunc+0x20>
 878:	08 95       	ret

0000087a <__fp_zero>:
 87a:	e8 94       	clt

0000087c <__fp_szero>:
 87c:	bb 27       	eor	r27, r27
 87e:	66 27       	eor	r22, r22
 880:	77 27       	eor	r23, r23
 882:	cb 01       	movw	r24, r22
 884:	97 f9       	bld	r25, 7
 886:	08 95       	ret
 888:	19 f4       	brne	.+6      	; 0x890 <__fp_szero+0x14>
 88a:	16 f4       	brtc	.+4      	; 0x890 <__fp_szero+0x14>
 88c:	0c 94 8a 04 	jmp	0x914	; 0x914 <__fp_nan>
 890:	0c 94 f5 03 	jmp	0x7ea	; 0x7ea <__fp_mpack>

00000894 <sqrt>:
 894:	0e 94 0b 04 	call	0x816	; 0x816 <__fp_splitA>
 898:	b8 f3       	brcs	.-18     	; 0x888 <__fp_szero+0xc>
 89a:	99 23       	and	r25, r25
 89c:	c9 f3       	breq	.-14     	; 0x890 <__fp_szero+0x14>
 89e:	b6 f3       	brts	.-20     	; 0x88c <__fp_szero+0x10>
 8a0:	9f 57       	subi	r25, 0x7F	; 127
 8a2:	55 0b       	sbc	r21, r21
 8a4:	87 ff       	sbrs	r24, 7
 8a6:	0e 94 8d 04 	call	0x91a	; 0x91a <__fp_norm2>
 8aa:	00 24       	eor	r0, r0
 8ac:	a0 e6       	ldi	r26, 0x60	; 96
 8ae:	40 ea       	ldi	r20, 0xA0	; 160
 8b0:	90 01       	movw	r18, r0
 8b2:	80 58       	subi	r24, 0x80	; 128
 8b4:	56 95       	lsr	r21
 8b6:	97 95       	ror	r25
 8b8:	28 f4       	brcc	.+10     	; 0x8c4 <sqrt+0x30>
 8ba:	80 5c       	subi	r24, 0xC0	; 192
 8bc:	66 0f       	add	r22, r22
 8be:	77 1f       	adc	r23, r23
 8c0:	88 1f       	adc	r24, r24
 8c2:	20 f0       	brcs	.+8      	; 0x8cc <sqrt+0x38>
 8c4:	26 17       	cp	r18, r22
 8c6:	37 07       	cpc	r19, r23
 8c8:	48 07       	cpc	r20, r24
 8ca:	30 f4       	brcc	.+12     	; 0x8d8 <sqrt+0x44>
 8cc:	62 1b       	sub	r22, r18
 8ce:	73 0b       	sbc	r23, r19
 8d0:	84 0b       	sbc	r24, r20
 8d2:	20 29       	or	r18, r0
 8d4:	31 29       	or	r19, r1
 8d6:	4a 2b       	or	r20, r26
 8d8:	a6 95       	lsr	r26
 8da:	17 94       	ror	r1
 8dc:	07 94       	ror	r0
 8de:	20 25       	eor	r18, r0
 8e0:	31 25       	eor	r19, r1
 8e2:	4a 27       	eor	r20, r26
 8e4:	58 f7       	brcc	.-42     	; 0x8bc <sqrt+0x28>
 8e6:	66 0f       	add	r22, r22
 8e8:	77 1f       	adc	r23, r23
 8ea:	88 1f       	adc	r24, r24
 8ec:	20 f0       	brcs	.+8      	; 0x8f6 <sqrt+0x62>
 8ee:	26 17       	cp	r18, r22
 8f0:	37 07       	cpc	r19, r23
 8f2:	48 07       	cpc	r20, r24
 8f4:	30 f4       	brcc	.+12     	; 0x902 <sqrt+0x6e>
 8f6:	62 0b       	sbc	r22, r18
 8f8:	73 0b       	sbc	r23, r19
 8fa:	84 0b       	sbc	r24, r20
 8fc:	20 0d       	add	r18, r0
 8fe:	31 1d       	adc	r19, r1
 900:	41 1d       	adc	r20, r1
 902:	a0 95       	com	r26
 904:	81 f7       	brne	.-32     	; 0x8e6 <sqrt+0x52>
 906:	b9 01       	movw	r22, r18
 908:	84 2f       	mov	r24, r20
 90a:	91 58       	subi	r25, 0x81	; 129
 90c:	88 0f       	add	r24, r24
 90e:	96 95       	lsr	r25
 910:	87 95       	ror	r24
 912:	08 95       	ret

00000914 <__fp_nan>:
 914:	9f ef       	ldi	r25, 0xFF	; 255
 916:	80 ec       	ldi	r24, 0xC0	; 192
 918:	08 95       	ret

0000091a <__fp_norm2>:
 91a:	91 50       	subi	r25, 0x01	; 1
 91c:	50 40       	sbci	r21, 0x00	; 0
 91e:	66 0f       	add	r22, r22
 920:	77 1f       	adc	r23, r23
 922:	88 1f       	adc	r24, r24
 924:	d2 f7       	brpl	.-12     	; 0x91a <__fp_norm2>
 926:	08 95       	ret

00000928 <__divmodsi4>:
 928:	05 2e       	mov	r0, r21
 92a:	97 fb       	bst	r25, 7
 92c:	1e f4       	brtc	.+6      	; 0x934 <__divmodsi4+0xc>
 92e:	00 94       	com	r0
 930:	0e 94 ab 04 	call	0x956	; 0x956 <__negsi2>
 934:	57 fd       	sbrc	r21, 7
 936:	07 d0       	rcall	.+14     	; 0x946 <__divmodsi4_neg2>
 938:	0e 94 b3 04 	call	0x966	; 0x966 <__udivmodsi4>
 93c:	07 fc       	sbrc	r0, 7
 93e:	03 d0       	rcall	.+6      	; 0x946 <__divmodsi4_neg2>
 940:	4e f4       	brtc	.+18     	; 0x954 <__divmodsi4_exit>
 942:	0c 94 ab 04 	jmp	0x956	; 0x956 <__negsi2>

00000946 <__divmodsi4_neg2>:
 946:	50 95       	com	r21
 948:	40 95       	com	r20
 94a:	30 95       	com	r19
 94c:	21 95       	neg	r18
 94e:	3f 4f       	sbci	r19, 0xFF	; 255
 950:	4f 4f       	sbci	r20, 0xFF	; 255
 952:	5f 4f       	sbci	r21, 0xFF	; 255

00000954 <__divmodsi4_exit>:
 954:	08 95       	ret

00000956 <__negsi2>:
 956:	90 95       	com	r25
 958:	80 95       	com	r24
 95a:	70 95       	com	r23
 95c:	61 95       	neg	r22
 95e:	7f 4f       	sbci	r23, 0xFF	; 255
 960:	8f 4f       	sbci	r24, 0xFF	; 255
 962:	9f 4f       	sbci	r25, 0xFF	; 255
 964:	08 95       	ret

00000966 <__udivmodsi4>:
 966:	a1 e2       	ldi	r26, 0x21	; 33
 968:	1a 2e       	mov	r1, r26
 96a:	aa 1b       	sub	r26, r26
 96c:	bb 1b       	sub	r27, r27
 96e:	fd 01       	movw	r30, r26
 970:	0d c0       	rjmp	.+26     	; 0x98c <__udivmodsi4_ep>

00000972 <__udivmodsi4_loop>:
 972:	aa 1f       	adc	r26, r26
 974:	bb 1f       	adc	r27, r27
 976:	ee 1f       	adc	r30, r30
 978:	ff 1f       	adc	r31, r31
 97a:	a2 17       	cp	r26, r18
 97c:	b3 07       	cpc	r27, r19
 97e:	e4 07       	cpc	r30, r20
 980:	f5 07       	cpc	r31, r21
 982:	20 f0       	brcs	.+8      	; 0x98c <__udivmodsi4_ep>
 984:	a2 1b       	sub	r26, r18
 986:	b3 0b       	sbc	r27, r19
 988:	e4 0b       	sbc	r30, r20
 98a:	f5 0b       	sbc	r31, r21

0000098c <__udivmodsi4_ep>:
 98c:	66 1f       	adc	r22, r22
 98e:	77 1f       	adc	r23, r23
 990:	88 1f       	adc	r24, r24
 992:	99 1f       	adc	r25, r25
 994:	1a 94       	dec	r1
 996:	69 f7       	brne	.-38     	; 0x972 <__udivmodsi4_loop>
 998:	60 95       	com	r22
 99a:	70 95       	com	r23
 99c:	80 95       	com	r24
 99e:	90 95       	com	r25
 9a0:	9b 01       	movw	r18, r22
 9a2:	ac 01       	movw	r20, r24
 9a4:	bd 01       	movw	r22, r26
 9a6:	cf 01       	movw	r24, r30
 9a8:	08 95       	ret

000009aa <_exit>:
 9aa:	f8 94       	cli

000009ac <__stop_program>:
 9ac:	ff cf       	rjmp	.-2      	; 0x9ac <__stop_program>
